; Function Attrs: mustprogress uwtable
define hidden noundef zeroext i1 @_ZN6Assimp3PLY3DOM19ParseInstanceBinaryERNS_14IOStreamBufferIcEEPS1_PNS_11PLYImporterEb(ptr noundef nonnull align 8 dereferenceable(80) %0, ptr noundef %1, ptr noundef %2, i1 noundef zeroext %3) local_unnamed_addr #2 align 2 personality ptr @__gxx_personality_v0 {
  %5 = alloca %"class.std::vector", align 8
  %6 = alloca i32, align 4
  %7 = alloca ptr, align 8
  call void @llvm.lifetime.start.p0(i64 24, ptr nonnull %5) #27
  call void @llvm.memset.p0.i64(ptr noundef nonnull align 8 dereferenceable(24) %5, i8 0, i64 24, i1 false)
  %8 = invoke noundef zeroext i1 @_ZN6Assimp14IOStreamBufferIcE11getNextLineERSt6vectorIcSaIcEE(ptr noundef nonnull align 8 dereferenceable(80) %0, ptr noundef nonnull align 8 dereferenceable(24) %5)
          to label %9 unwind label %18

9:                                                ; preds = %4
  %10 = invoke noundef ptr @_ZN6Assimp13DefaultLogger3getEv()
          to label %11 unwind label %18

11:                                               ; preds = %9
  invoke void @_ZN6Assimp6Logger12verboseDebugEPKc(ptr noundef nonnull align 8 dereferenceable(12) %10, ptr noundef nonnull @.str.79)
          to label %12 unwind label %18

12:                                               ; preds = %11
  %13 = invoke noundef zeroext i1 @_ZN6Assimp3PLY3DOM11ParseHeaderERNS_14IOStreamBufferIcEERSt6vectorIcSaIcEEb(ptr noundef nonnull align 8 dereferenceable(48) %1, ptr noundef nonnull align 8 dereferenceable(80) %0, ptr noundef nonnull align 8 dereferenceable(24) %5, i1 noundef zeroext true)
          to label %14 unwind label %18

14:                                               ; preds = %12
  br i1 %13, label %20, label %15

15:                                               ; preds = %14
  %16 = invoke noundef ptr @_ZN6Assimp13DefaultLogger3getEv()
          to label %17 unwind label %18

17:                                               ; preds = %15
  invoke void @_ZN6Assimp6Logger12verboseDebugEPKc(ptr noundef nonnull align 8 dereferenceable(12) %16, ptr noundef nonnull @.str.80)
          to label %37 unwind label %18

18:                                               ; preds = %20, %17, %15, %12, %11, %9, %4
  %19 = landingpad { ptr, i32 }
          cleanup
  br label %45

20:                                               ; preds = %14
  %21 = invoke noundef zeroext i1 @_ZN6Assimp14IOStreamBufferIcE12getNextBlockERSt6vectorIcSaIcEE(ptr noundef nonnull align 8 dereferenceable(80) %0, ptr noundef nonnull align 8 dereferenceable(24) %5)
          to label %22 unwind label %18

22:                                               ; preds = %20
  call void @llvm.lifetime.start.p0(i64 4, ptr nonnull %6) #27
  %23 = getelementptr inbounds nuw i8, ptr %5, i64 8
  %24 = load ptr, ptr %23, align 8
  %25 = load ptr, ptr %5, align 8
  %26 = ptrtoint ptr %24 to i64
  %27 = ptrtoint ptr %25 to i64
  %28 = sub i64 %26, %27
  %29 = trunc i64 %28 to i32
  store i32 %29, ptr %6, align 4
  call void @llvm.lifetime.start.p0(i64 8, ptr nonnull %7) #27
  store ptr %25, ptr %7, align 8
  %30 = invoke noundef zeroext i1 @_ZN6Assimp3PLY3DOM31ParseElementInstanceListsBinaryERNS_14IOStreamBufferIcEERSt6vectorIcSaIcEERPKcRjPNS_11PLYImporterEb(ptr noundef nonnull align 8 dereferenceable(48) %1, ptr noundef nonnull align 8 dereferenceable(80) %0, ptr noundef nonnull align 8 dereferenceable(24) %5, ptr noundef nonnull align 8 dereferenceable(8) %7, ptr noundef nonnull align 4 dereferenceable(4) %6, ptr noundef %2, i1 noundef zeroext %3)
          to label %33 unwind label %31

31:                                               ; preds = %35, %33, %22
  %32 = landingpad { ptr, i32 }
          cleanup
  call void @llvm.lifetime.end.p0(i64 8, ptr nonnull %7) #27
  call void @llvm.lifetime.end.p0(i64 4, ptr nonnull %6) #27
  br label %45

33:                                               ; preds = %22
  %34 = invoke noundef ptr @_ZN6Assimp13DefaultLogger3getEv()
          to label %35 unwind label %31

35:                                               ; preds = %33
  invoke void @_ZN6Assimp6Logger12verboseDebugEPKc(ptr noundef nonnull align 8 dereferenceable(12) %34, ptr noundef nonnull @.str.81)
          to label %36 unwind label %31

36:                                               ; preds = %35
  call void @llvm.lifetime.end.p0(i64 8, ptr nonnull %7) #27
  call void @llvm.lifetime.end.p0(i64 4, ptr nonnull %6) #27
  br label %37

37:                                               ; preds = %17, %36
  %38 = load ptr, ptr %5, align 8
  %.not.i.i.i = icmp eq ptr %38, null
  br i1 %.not.i.i.i, label %_ZNSt6vectorIcSaIcEED2Ev.exit, label %39

39:                                               ; preds = %37
  %40 = getelementptr inbounds nuw i8, ptr %5, i64 16
  %41 = load ptr, ptr %40, align 8
  %42 = ptrtoint ptr %41 to i64
  %43 = ptrtoint ptr %38 to i64
  %44 = sub i64 %42, %43
  call void @_ZdlPvm(ptr noundef nonnull %38, i64 noundef %44) #28
  br label %_ZNSt6vectorIcSaIcEED2Ev.exit

_ZNSt6vectorIcSaIcEED2Ev.exit:                    ; preds = %37, %39
  call void @llvm.lifetime.end.p0(i64 24, ptr nonnull %5) #27
  ret i1 %13

45:                                               ; preds = %31, %18
  %.pn = phi { ptr, i32 } [ %32, %31 ], [ %19, %18 ]
  %46 = load ptr, ptr %5, align 8
  %.not.i.i.i13 = icmp eq ptr %46, null
  br i1 %.not.i.i.i13, label %_ZNSt6vectorIcSaIcEED2Ev.exit14, label %47

47:                                               ; preds = %45
  %48 = getelementptr inbounds nuw i8, ptr %5, i64 16
  %49 = load ptr, ptr %48, align 8
  %50 = ptrtoint ptr %49 to i64
  %51 = ptrtoint ptr %46 to i64
  %52 = sub i64 %50, %51
  call void @_ZdlPvm(ptr noundef nonnull %46, i64 noundef %52) #28
  br label %_ZNSt6vectorIcSaIcEED2Ev.exit14

_ZNSt6vectorIcSaIcEED2Ev.exit14:                  ; preds = %45, %47
  call void @llvm.lifetime.end.p0(i64 24, ptr nonnull %5) #27
  resume { ptr, i32 } %.pn
}